ccollections
OrderedDict
p1
((lp2
(lp3
S'llleg_outer'
p4
aI1097
aa(lp5
S'lhip_outer'
p6
aI1454
aa(lp7
S'rmcorner'
p8
aI3841
aa(lp9
S'lknee_inner'
p10
aI1016
aa(lp11
S'ruarm_outer'
p12
aI4862
aa(lp13
S'lankle_outer'
p14
aI3328
aa(lp15
S'rknee_outer'
p16
aI4495
aa(lp17
S'lshoulder_back'
p18
aI734
aa(lp19
S'relbow_inner'
p20
aI5121
aa(lp21
S'rpapilla'
p22
aI6489
aa(lp23
S'lelbow_top'
p24
aI1618
aa(lp25
S'rhip_outer'
p26
aI4920
aa(lp27
S'rbigtoe'
p28
aI6618
aa(lp29
S'lknee_back'
p30
aI1002
aa(lp31
S'lknee_outer'
p32
aI1010
aa(lp33
S'waist_back'
p34
aI3021
aa(lp35
S'rknee_inner'
p36
aI4500
aa(lp37
S'ruleg_front'
p38
aI4431
aa(lp39
S'luarm_inner'
p40
aI627
aa(lp41
S'ruleg_outer'
p42
aI4459
aa(lp43
S'rankle_outer'
p44
aI6728
aa(lp45
S'rhip_back'
p46
aI6539
aa(lp47
S'luleg_inner'
p48
aI949
aa(lp49
S'lknee_front'
p50
aI1043
aa(lp51
S'lbigtoe'
p52
aI3217
aa(lp53
S'belly_button'
p54
aI3500
aa(lp55
S'lpapilla'
p56
aI3042
aa(lp57
S'rlleg_back'
p58
aI4937
aa(lp59
S'ruleg_inner'
p60
aI4435
aa(lp61
S'ruarm_inner'
p62
aI6281
aa(lp63
S'lear'
p64
aI516
aa(lp65
S'lshoulder_front'
p66
aI1873
aa(lp67
S'throat'
p68
aI3068
aa(lp69
S'llleg_front'
p70
aI1103
aa(lp71
S'lwaist'
p72
aI676
aa(lp73
S'luleg_front'
p74
aI946
aa(lp75
S'rknee_front'
p76
aI4529
aa(lp77
S'luleg_outer'
p78
aI973
aa(lp79
S'rlarm_upper'
p80
aI5016
aa(lp81
S'nose'
p82
aI331
aa(lp83
S'rshoulder_back'
p84
aI4222
aa(lp85
S'rshoulder_top'
p86
aI6470
aa(lp87
S'rlleg_inner'
p88
aI4574
aa(lp89
S'lmcorner'
p90
aI337
aa(lp91
S'head_top'
p92
aI411
aa(lp93
S'lhip_back'
p94
aI3117
aa(lp95
S'lelbow_outer'
p96
aI1703
aa(lp97
S'rhip_front'
p98
aI4399
aa(lp99
S'llarm_upper'
p100
aI1971
aa(lp101
S'shoulderblade_center'
p102
aI3028
aa(lp103
S'ruleg_back'
p104
aI4933
aa(lp105
S'lelbow_inner'
p106
aI1650
aa(lp107
S'rknee_back'
p108
aI4486
aa(lp109
S'rshoulder_front'
p110
aI4798
aa(lp111
S'rheel'
p112
aI6786
aa(lp113
S'luarm_outer'
p114
aI1389
aa(lp115
S'relbow_outer'
p116
aI5129
aa(lp117
S'llarm_lower'
p118
aI1953
aa(lp119
S'rear'
p120
aI3998
aa(lp121
S'lhip_front'
p122
aI915
aa(lp123
S'reye'
p124
aI6262
aa(lp125
S'luleg_back'
p126
aI1459
aa(lp127
S'neck'
p128
aI829
aa(lp129
S'rankle_inner'
p130
aI6832
aa(lp131
S'relbow_bottom'
p132
aI5131
aa(lp133
S'lankle_inner'
p134
aI3432
aa(lp135
S'head_back'
p136
aI457
aa(lp137
S'leye'
p138
aI2802
aa(lp139
S'rlleg_outer'
p140
aI4581
aa(lp141
S'rlleg_front'
p142
aI4589
aa(lp143
S'relbow_top'
p144
aI5135
aa(lp145
S'lelbow_bottom'
p146
aI1724
aa(lp147
S'llleg_back'
p148
aI1464
aa(lp149
S'solar_plexus'
p150
aI1329
aa(lp151
S'lheel'
p152
aI3387
aa(lp153
S'lshoulder_top'
p154
aI1822
aa(lp155
S'llleg_inner'
p156
aI1088
aa(lp157
S'rwaist'
p158
aI4317
aa(lp159
S'rlarm_lower'
p160
aI5021
aatRp161
.